target datalayout = "e-m:e-p270:32:32-p271:32:32-p272:64:64-i64:64-i128:128-f80:128-n8:16:32:64-S128"
target triple = "x86_64-pc-linux-gnu"

%struct.slurmdb_qos_rec_t = type { i64, ptr, i32, i32, i32, i32, i32, i32, ptr, ptr, ptr, ptr, ptr, ptr, i32, double, i32, i32, i32, i32, i32, i32, ptr, ptr, ptr, ptr, ptr, ptr, ptr, ptr, ptr, ptr, ptr, ptr, ptr, ptr, i32, i32, ptr, ptr, ptr, ptr, ptr, i16, i32, i32, ptr, ptr, double, double }

; Function Attrs: nounwind uwtable
define dso_local void @slurmdb_init_qos_rec(ptr noundef %0, i1 noundef zeroext %1, i32 noundef %2) #0 {
  %4 = alloca ptr, align 8
  %5 = alloca i8, align 1
  %6 = alloca i32, align 4
  store ptr %0, ptr %4, align 8
  %7 = zext i1 %1 to i8
  store i8 %7, ptr %5, align 1
  store i32 %2, ptr %6, align 4
  %8 = load ptr, ptr %4, align 8
  %9 = icmp ne ptr %8, null
  br i1 %9, label %11, label %10

10:                                               ; preds = %3
  br label %81

11:                                               ; preds = %3
  %12 = load i8, ptr %5, align 1, !range !12, !noundef !13
  %13 = trunc i8 %12 to i1
  br i1 %13, label %14, label %16

14:                                               ; preds = %11
  %15 = load ptr, ptr %4, align 8
  call void @slurmdb_free_qos_rec_members(ptr noundef %15)
  br label %16

16:                                               ; preds = %14, %11
  %17 = load ptr, ptr %4, align 8
  call void @llvm.memset.p0.i64(ptr align 8 %17, i8 0, i64 336, i1 false)
  %18 = load ptr, ptr %4, align 8
  %19 = getelementptr inbounds nuw %struct.slurmdb_qos_rec_t, ptr %18, i32 0, i32 3
  store i32 268435456, ptr %19, align 4
  %20 = load i32, ptr %6, align 4
  %21 = load ptr, ptr %4, align 8
  %22 = getelementptr inbounds nuw %struct.slurmdb_qos_rec_t, ptr %21, i32 0, i32 4
  store i32 %20, ptr %22, align 8
  %23 = load i32, ptr %6, align 4
  %24 = trunc i32 %23 to i16
  %25 = load ptr, ptr %4, align 8
  %26 = getelementptr inbounds nuw %struct.slurmdb_qos_rec_t, ptr %25, i32 0, i32 43
  store i16 %24, ptr %26, align 8
  %27 = load i32, ptr %6, align 4
  %28 = load ptr, ptr %4, align 8
  %29 = getelementptr inbounds nuw %struct.slurmdb_qos_rec_t, ptr %28, i32 0, i32 44
  store i32 %27, ptr %29, align 4
  %30 = load i32, ptr %6, align 4
  %31 = load ptr, ptr %4, align 8
  %32 = getelementptr inbounds nuw %struct.slurmdb_qos_rec_t, ptr %31, i32 0, i32 45
  store i32 %30, ptr %32, align 8
  %33 = load i32, ptr %6, align 4
  %34 = load ptr, ptr %4, align 8
  %35 = getelementptr inbounds nuw %struct.slurmdb_qos_rec_t, ptr %34, i32 0, i32 6
  store i32 %33, ptr %35, align 8
  %36 = load i32, ptr %6, align 4
  %37 = load ptr, ptr %4, align 8
  %38 = getelementptr inbounds nuw %struct.slurmdb_qos_rec_t, ptr %37, i32 0, i32 5
  store i32 %36, ptr %38, align 4
  %39 = load i32, ptr %6, align 4
  %40 = load ptr, ptr %4, align 8
  %41 = getelementptr inbounds nuw %struct.slurmdb_qos_rec_t, ptr %40, i32 0, i32 7
  store i32 %39, ptr %41, align 4
  %42 = load i32, ptr %6, align 4
  %43 = load ptr, ptr %4, align 8
  %44 = getelementptr inbounds nuw %struct.slurmdb_qos_rec_t, ptr %43, i32 0, i32 14
  store i32 %42, ptr %44, align 8
  %45 = load i32, ptr %6, align 4
  %46 = uitofp i32 %45 to double
  %47 = load ptr, ptr %4, align 8
  %48 = getelementptr inbounds nuw %struct.slurmdb_qos_rec_t, ptr %47, i32 0, i32 15
  store double %46, ptr %48, align 8
  %49 = load i32, ptr %6, align 4
  %50 = load ptr, ptr %4, align 8
  %51 = getelementptr inbounds nuw %struct.slurmdb_qos_rec_t, ptr %50, i32 0, i32 16
  store i32 %49, ptr %51, align 8
  %52 = load i32, ptr %6, align 4
  %53 = load ptr, ptr %4, align 8
  %54 = getelementptr inbounds nuw %struct.slurmdb_qos_rec_t, ptr %53, i32 0, i32 17
  store i32 %52, ptr %54, align 4
  %55 = load i32, ptr %6, align 4
  %56 = load ptr, ptr %4, align 8
  %57 = getelementptr inbounds nuw %struct.slurmdb_qos_rec_t, ptr %56, i32 0, i32 18
  store i32 %55, ptr %57, align 8
  %58 = load i32, ptr %6, align 4
  %59 = load ptr, ptr %4, align 8
  %60 = getelementptr inbounds nuw %struct.slurmdb_qos_rec_t, ptr %59, i32 0, i32 19
  store i32 %58, ptr %60, align 4
  %61 = load i32, ptr %6, align 4
  %62 = load ptr, ptr %4, align 8
  %63 = getelementptr inbounds nuw %struct.slurmdb_qos_rec_t, ptr %62, i32 0, i32 37
  store i32 %61, ptr %63, align 4
  %64 = load i32, ptr %6, align 4
  %65 = load ptr, ptr %4, align 8
  %66 = getelementptr inbounds nuw %struct.slurmdb_qos_rec_t, ptr %65, i32 0, i32 20
  store i32 %64, ptr %66, align 8
  %67 = load i32, ptr %6, align 4
  %68 = load ptr, ptr %4, align 8
  %69 = getelementptr inbounds nuw %struct.slurmdb_qos_rec_t, ptr %68, i32 0, i32 21
  store i32 %67, ptr %69, align 4
  %70 = load i32, ptr %6, align 4
  %71 = load ptr, ptr %4, align 8
  %72 = getelementptr inbounds nuw %struct.slurmdb_qos_rec_t, ptr %71, i32 0, i32 36
  store i32 %70, ptr %72, align 8
  %73 = load i32, ptr %6, align 4
  %74 = uitofp i32 %73 to double
  %75 = load ptr, ptr %4, align 8
  %76 = getelementptr inbounds nuw %struct.slurmdb_qos_rec_t, ptr %75, i32 0, i32 48
  store double %74, ptr %76, align 8
  %77 = load i32, ptr %6, align 4
  %78 = uitofp i32 %77 to double
  %79 = load ptr, ptr %4, align 8
  %80 = getelementptr inbounds nuw %struct.slurmdb_qos_rec_t, ptr %79, i32 0, i32 49
  store double %78, ptr %80, align 8
  br label %81

81:                                               ; preds = %16, %10
  ret void
}