; Function Attrs: nounwind uwtable
define dso_local void @slurmdb_init_qos_rec(ptr noundef %0, i1 noundef zeroext %1, i32 noundef %2) local_unnamed_addr #0 {
  %.not = icmp eq ptr %0, null
  br i1 %.not, label %29, label %4

4:                                                ; preds = %3
  br i1 %1, label %5, label %6

5:                                                ; preds = %4
  tail call void @slurmdb_free_qos_rec_members(ptr noundef nonnull %0)
  br label %6

6:                                                ; preds = %5, %4
  tail call void @llvm.memset.p0.i64(ptr noundef nonnull align 8 dereferenceable(336) %0, i8 0, i64 320, i1 false)
  %7 = getelementptr inbounds nuw i8, ptr %0, i64 20
  store i32 268435456, ptr %7, align 4
  %8 = getelementptr inbounds nuw i8, ptr %0, i64 24
  store i32 %2, ptr %8, align 8
  %9 = trunc i32 %2 to i16
  %10 = getelementptr inbounds nuw i8, ptr %0, i64 288
  store i16 %9, ptr %10, align 8
  %11 = getelementptr inbounds nuw i8, ptr %0, i64 292
  store i32 %2, ptr %11, align 4
  %12 = getelementptr inbounds nuw i8, ptr %0, i64 296
  store i32 %2, ptr %12, align 8
  %13 = getelementptr inbounds nuw i8, ptr %0, i64 32
  store i32 %2, ptr %13, align 8
  %14 = getelementptr inbounds nuw i8, ptr %0, i64 28
  store i32 %2, ptr %14, align 4
  %15 = getelementptr inbounds nuw i8, ptr %0, i64 36
  store i32 %2, ptr %15, align 4
  %16 = getelementptr inbounds nuw i8, ptr %0, i64 88
  store i32 %2, ptr %16, align 8
  %17 = uitofp i32 %2 to double
  %18 = getelementptr inbounds nuw i8, ptr %0, i64 96
  store double %17, ptr %18, align 8
  %19 = getelementptr inbounds nuw i8, ptr %0, i64 104
  store i32 %2, ptr %19, align 8
  %20 = getelementptr inbounds nuw i8, ptr %0, i64 108
  store i32 %2, ptr %20, align 4
  %21 = getelementptr inbounds nuw i8, ptr %0, i64 112
  store i32 %2, ptr %21, align 8
  %22 = getelementptr inbounds nuw i8, ptr %0, i64 116
  store i32 %2, ptr %22, align 4
  %23 = getelementptr inbounds nuw i8, ptr %0, i64 244
  store i32 %2, ptr %23, align 4
  %24 = getelementptr inbounds nuw i8, ptr %0, i64 120
  store i32 %2, ptr %24, align 8
  %25 = getelementptr inbounds nuw i8, ptr %0, i64 124
  store i32 %2, ptr %25, align 4
  %26 = getelementptr inbounds nuw i8, ptr %0, i64 240
  store i32 %2, ptr %26, align 8
  %27 = getelementptr inbounds nuw i8, ptr %0, i64 320
  store double %17, ptr %27, align 8
  %28 = getelementptr inbounds nuw i8, ptr %0, i64 328
  store double %17, ptr %28, align 8
  br label %29

29:                                               ; preds = %3, %6
  ret void
}